; Function Attrs: nounwind uwtable
define ptr @_php_stream_temp_create(i32 noundef %0, i64 noundef %1) local_unnamed_addr #0 {
  %3 = tail call noalias dereferenceable_or_null(48) ptr @_ecalloc(i64 noundef 1, i64 noundef 48) #22
  %4 = getelementptr inbounds i8, ptr %3, i64 8
  store i64 %1, ptr %4, align 8
  %5 = getelementptr inbounds i8, ptr %3, i64 16
  store i32 %0, ptr %5, align 8
  %6 = getelementptr inbounds i8, ptr %3, i64 32
  store i32 0, ptr %6, align 8
  %switch.selectcmp.i.i = icmp eq i32 %0, 4
  %switch.select.i.i = select i1 %switch.selectcmp.i.i, ptr @.str.4, ptr @.str.5
  %switch.selectcmp3.i.i = icmp eq i32 %0, 1
  %switch.select4.i.i = select i1 %switch.selectcmp3.i.i, ptr @.str.3, ptr %switch.select.i.i
  %7 = tail call ptr @_php_stream_alloc(ptr noundef nonnull @php_stream_temp_ops, ptr noundef nonnull %3, ptr noundef null, ptr noundef nonnull %switch.select4.i.i) #20
  %8 = getelementptr inbounds i8, ptr %7, i64 116
  %9 = load i32, ptr %8, align 4
  %10 = or i32 %9, 2
  store i32 %10, ptr %8, align 4
  %11 = tail call noalias ptr @_emalloc_24() #20
  %12 = load ptr, ptr @zend_empty_string, align 8
  store ptr %12, ptr %11, align 8
  %13 = getelementptr inbounds i8, ptr %11, i64 8
  store i64 0, ptr %13, align 8
  %14 = getelementptr inbounds i8, ptr %11, i64 16
  store i32 %0, ptr %14, align 8
  %15 = tail call ptr @_php_stream_alloc(ptr noundef nonnull @php_stream_memory_ops, ptr noundef nonnull %11, ptr noundef null, ptr noundef nonnull %switch.select4.i.i) #20
  %16 = getelementptr inbounds i8, ptr %15, i64 116
  %17 = load i32, ptr %16, align 4
  %18 = or i32 %17, 2
  store i32 %18, ptr %16, align 4
  store ptr %15, ptr %3, align 8
  %19 = tail call ptr @php_stream_encloses(ptr noundef %7, ptr noundef %15) #20
  ret ptr %7
}